; ModuleID = '44/194.c'
source_filename = "44/194.c"
target datalayout = "e-m:e-p270:32:32-p271:32:32-p272:64:64-i64:64-f80:128-n8:16:32:64-S128"
target triple = "x86_64-pc-linux-gnu"

@.str = private unnamed_addr constant [3 x i8] c"%d\00", align 1
@.str.1 = private unnamed_addr constant [4 x i8] c"%d\0A\00", align 1

; Function Attrs: noinline nounwind uwtable
define dso_local i32 @main() #0 {
  %1 = alloca i32, align 4
  %2 = alloca i32, align 4
  %3 = alloca i32, align 4
  %4 = alloca i32, align 4
  %5 = alloca i32, align 4
  store i32 0, i32* %1, align 4
  store i32 1, i32* %2, align 4
  br label %6

6:                                                ; preds = %52, %0
  %7 = load i32, i32* %2, align 4
  %8 = icmp sle i32 %7, 6
  br i1 %8, label %9, label %55

9:                                                ; preds = %6
  %10 = call i32 (i8*, ...) @__isoc99_scanf(i8* getelementptr inbounds ([3 x i8], [3 x i8]* @.str, i64 0, i64 0), i32* %3)
  %11 = load i32, i32* %3, align 4
  %12 = icmp slt i32 %11, 0
  br i1 %12, label %13, label %34

13:                                               ; preds = %9
  %14 = load i32, i32* %3, align 4
  %15 = sub nsw i32 0, %14
  store i32 %15, i32* %3, align 4
  store i32 0, i32* %5, align 4
  br label %16

16:                                               ; preds = %26, %13
  %17 = load i32, i32* %3, align 4
  %18 = icmp sgt i32 %17, 0
  br i1 %18, label %19, label %29

19:                                               ; preds = %16
  %20 = load i32, i32* %3, align 4
  %21 = srem i32 %20, 10
  store i32 %21, i32* %4, align 4
  %22 = load i32, i32* %5, align 4
  %23 = mul nsw i32 10, %22
  %24 = load i32, i32* %4, align 4
  %25 = add nsw i32 %23, %24
  store i32 %25, i32* %5, align 4
  br label %26

26:                                               ; preds = %19
  %27 = load i32, i32* %3, align 4
  %28 = sdiv i32 %27, 10
  store i32 %28, i32* %3, align 4
  br label %16

29:                                               ; preds = %16
  %30 = load i32, i32* %5, align 4
  %31 = sub nsw i32 0, %30
  store i32 %31, i32* %5, align 4
  %32 = load i32, i32* %5, align 4
  %33 = call i32 (i8*, ...) @printf(i8* getelementptr inbounds ([4 x i8], [4 x i8]* @.str.1, i64 0, i64 0), i32 %32)
  br label %51

34:                                               ; preds = %9
  store i32 0, i32* %5, align 4
  br label %35

35:                                               ; preds = %45, %34
  %36 = load i32, i32* %3, align 4
  %37 = icmp sgt i32 %36, 0
  br i1 %37, label %38, label %48

38:                                               ; preds = %35
  %39 = load i32, i32* %3, align 4
  %40 = srem i32 %39, 10
  store i32 %40, i32* %4, align 4
  %41 = load i32, i32* %5, align 4
  %42 = mul nsw i32 10, %41
  %43 = load i32, i32* %4, align 4
  %44 = add nsw i32 %42, %43
  store i32 %44, i32* %5, align 4
  br label %45

45:                                               ; preds = %38
  %46 = load i32, i32* %3, align 4
  %47 = sdiv i32 %46, 10
  store i32 %47, i32* %3, align 4
  br label %35

48:                                               ; preds = %35
  %49 = load i32, i32* %5, align 4
  %50 = call i32 (i8*, ...) @printf(i8* getelementptr inbounds ([4 x i8], [4 x i8]* @.str.1, i64 0, i64 0), i32 %49)
  br label %51

51:                                               ; preds = %48, %29
  br label %52

52:                                               ; preds = %51
  %53 = load i32, i32* %2, align 4
  %54 = add nsw i32 %53, 1
  store i32 %54, i32* %2, align 4
  br label %6

55:                                               ; preds = %6
  %56 = load i32, i32* %1, align 4
  ret i32 %56
}

declare dso_local i32 @__isoc99_scanf(i8*, ...) #1

declare dso_local i32 @printf(i8*, ...) #1


!llvm.module.flags = !{!0}
!llvm.ident = !{!1}

!0 = !{i32 1, !"wchar_size", i32 4}
!1 = !{!"clang version 10.0.0-4ubuntu1 "}
